; Function Attrs: nounwind uwtable
define internal fastcc void @Wayland_move_window(ptr noundef %0) unnamed_addr #0 {
  %2 = getelementptr inbounds nuw i8, ptr %0, i64 392
  %3 = load ptr, ptr %2, align 8
  %4 = getelementptr inbounds nuw i8, ptr %3, i64 224
  %5 = load ptr, ptr %4, align 8
  %.not = icmp eq ptr %5, null
  br i1 %.not, label %38, label %6

6:                                                ; preds = %1
  %7 = getelementptr inbounds nuw i8, ptr %3, i64 232
  %8 = load i32, ptr %7, align 8
  %.not30 = icmp eq i32 %8, 0
  br i1 %.not30, label %38, label %9

9:                                                ; preds = %6
  %10 = sext i32 %8 to i64
  %11 = getelementptr ptr, ptr %5, i64 %10
  %12 = getelementptr i8, ptr %11, i64 -8
  %13 = load ptr, ptr %12, align 8
  %14 = tail call ptr @SDL_GetDisplays_REAL(ptr noundef null) #15
  %.not31 = icmp eq ptr %14, null
  br i1 %.not31, label %38, label %.preheader

.preheader:                                       ; preds = %9
  %15 = load i32, ptr %14, align 4
  %.not3236 = icmp eq i32 %15, 0
  br i1 %.not3236, label %.loopexit, label %.lr.ph

16:                                               ; preds = %.lr.ph
  %indvars.iv.next = add nuw nsw i64 %indvars.iv, 1
  %17 = getelementptr inbounds nuw i32, ptr %14, i64 %indvars.iv.next
  %18 = load i32, ptr %17, align 4
  %.not32 = icmp eq i32 %18, 0
  br i1 %.not32, label %.loopexit, label %.lr.ph, !llvm.loop !8

.lr.ph:                                           ; preds = %.preheader, %16
  %indvars.iv = phi i64 [ %indvars.iv.next, %16 ], [ 0, %.preheader ]
  %19 = phi i32 [ %18, %16 ], [ %15, %.preheader ]
  %20 = tail call ptr @SDL_GetDisplayDriverData(i32 noundef %19) #15
  %21 = icmp eq ptr %20, %13
  br i1 %21, label %22, label %16

22:                                               ; preds = %.lr.ph
  %23 = getelementptr inbounds nuw i32, ptr %14, i64 %indvars.iv
  %24 = getelementptr inbounds nuw i8, ptr %3, i64 364
  %25 = load i32, ptr %24, align 4
  %26 = load i32, ptr %23, align 4
  %.not33 = icmp eq i32 %25, %26
  br i1 %.not33, label %.loopexit, label %27

27:                                               ; preds = %22
  store i32 %26, ptr %24, align 4
  %28 = getelementptr inbounds nuw i8, ptr %3, i64 88
  %29 = load i32, ptr %28, align 8
  %.not34 = icmp eq i32 %29, 2
  br i1 %.not34, label %.loopexit, label %30

30:                                               ; preds = %27
  %31 = getelementptr inbounds nuw i8, ptr %13, i64 68
  %32 = load i32, ptr %31, align 4
  %33 = getelementptr inbounds nuw i8, ptr %13, i64 72
  %34 = load i32, ptr %33, align 8
  %35 = tail call zeroext i1 @SDL_SendWindowEvent(ptr noundef %0, i32 noundef 517, i32 noundef %32, i32 noundef %34) #15
  %36 = load i32, ptr %24, align 4
  %37 = tail call zeroext i1 @SDL_SendWindowEvent(ptr noundef %0, i32 noundef 531, i32 noundef %36, i32 noundef 0) #15
  br label %.loopexit

.loopexit:                                        ; preds = %16, %.preheader, %22, %30, %27
  tail call void @SDL_free_REAL(ptr noundef nonnull %14) #15
  br label %38

38:                                               ; preds = %9, %.loopexit, %1, %6
  ret void
}